target datalayout = "e-m:e-p270:32:32-p271:32:32-p272:64:64-i64:64-i128:128-f80:128-n8:16:32:64-S128"
target triple = "x86_64-pc-linux-gnu"

@.str = private unnamed_addr constant [39 x i8] c"can't convert data to mpi (size %d):%s\00", align 1
@.str.1 = private unnamed_addr constant [20 x i8] c"(enc-val(rsa(a%m)))\00", align 1
@.str.2 = private unnamed_addr constant [25 x i8] c"can't build encr_sexp:%s\00", align 1
@.str.3 = private unnamed_addr constant [21 x i8] c"can't decrypt key:%s\00", align 1
@.str.4 = private unnamed_addr constant [26 x i8] c"can't convert sexp to mpi\00", align 1
@.str.5 = private unnamed_addr constant [27 x i8] c"can't compute decr size:%s\00", align 1
@.str.6 = private unnamed_addr constant [44 x i8] c"decrypted data is too long ?!? (%zu max %d)\00", align 1
@.str.7 = private unnamed_addr constant [43 x i8] c"can't print decr data to mpi (size %zu):%s\00", align 1

; Function Attrs: alwaysinline nounwind
define internal ptr @memmove.inline(ptr %0, ptr %1, i64 %2) #3 {
  %4 = alloca ptr, align 8
  %5 = alloca ptr, align 8
  %6 = alloca i64, align 8
  store ptr %0, ptr %4, align 8
  store ptr %1, ptr %5, align 8
  store i64 %2, ptr %6, align 8
  %7 = load ptr, ptr %4, align 8
  %8 = load ptr, ptr %5, align 8
  %9 = load i64, ptr %6, align 8
  %10 = load ptr, ptr %4, align 8
  %11 = call i64 @llvm.objectsize.i64.p0(ptr %10, i1 false, i1 true, i1 true)
  %12 = call ptr @__memmove_chk(ptr noundef %7, ptr noundef %8, i64 noundef %9, i64 noundef %11) #9
  ret ptr %12
}

; Function Attrs: null_pointer_is_valid sspstrong uwtable
define i64 @rsa_decrypt_inplace(i32 noundef %0, ptr noundef %1, ptr noundef %2, i1 noundef zeroext %3, ptr noundef %4) #0 {
  %6 = alloca i64, align 8
  %7 = alloca i32, align 4
  %8 = alloca ptr, align 8
  %9 = alloca ptr, align 8
  %10 = alloca i8, align 1
  %11 = alloca ptr, align 8
  %12 = alloca i32, align 4
  %13 = alloca i64, align 8
  %14 = alloca i64, align 8
  %15 = alloca ptr, align 8
  %16 = alloca ptr, align 8
  %17 = alloca ptr, align 8
  %18 = alloca ptr, align 8
  %19 = alloca i32, align 4
  store i32 %0, ptr %7, align 4
  store ptr %1, ptr %8, align 8
  store ptr %2, ptr %9, align 8
  %20 = zext i1 %3 to i8
  store i8 %20, ptr %10, align 1
  store ptr %4, ptr %11, align 8
  call void @llvm.lifetime.start.p0(i64 4, ptr %12) #9
  store i32 0, ptr %12, align 4
  call void @llvm.lifetime.start.p0(i64 8, ptr %13) #9
  store i64 0, ptr %13, align 8
  call void @llvm.lifetime.start.p0(i64 8, ptr %14) #9
  store i64 0, ptr %14, align 8
  call void @llvm.lifetime.start.p0(i64 8, ptr %15) #9
  store ptr null, ptr %15, align 8
  call void @llvm.lifetime.start.p0(i64 8, ptr %16) #9
  store ptr null, ptr %16, align 8
  call void @llvm.lifetime.start.p0(i64 8, ptr %17) #9
  store ptr null, ptr %17, align 8
  call void @llvm.lifetime.start.p0(i64 8, ptr %18) #9
  store ptr null, ptr %18, align 8
  %21 = load ptr, ptr %11, align 8
  store ptr null, ptr %21, align 8
  %22 = load ptr, ptr %8, align 8
  %23 = load i32, ptr %7, align 4
  %24 = zext i32 %23 to i64
  %25 = call i32 @gcry_mpi_scan(ptr noundef %17, i32 noundef 5, ptr noundef %22, i64 noundef %24, ptr noundef null)
  store i32 %25, ptr %12, align 4
  %26 = load i32, ptr %12, align 4
  %27 = icmp ne i32 %26, 0
  br i1 %27, label %28, label %34

28:                                               ; preds = %5
  %29 = load i32, ptr %7, align 4
  %30 = load i32, ptr %12, align 4
  %31 = call ptr @gcry_strerror(i32 noundef %30)
  %32 = call noalias ptr (ptr, ptr, ...) @wmem_strdup_printf(ptr noundef null, ptr noundef @.str, i32 noundef %29, ptr noundef %31)
  %33 = load ptr, ptr %11, align 8
  store ptr %32, ptr %33, align 8
  store i64 0, ptr %6, align 8
  store i32 1, ptr %19, align 4
  br label %139

34:                                               ; preds = %5
  %35 = load ptr, ptr %17, align 8
  %36 = call i32 (ptr, ptr, ptr, ...) @gcry_sexp_build(ptr noundef %15, ptr noundef null, ptr noundef @.str.1, ptr noundef %35)
  store i32 %36, ptr %12, align 4
  %37 = load i32, ptr %12, align 4
  %38 = icmp ne i32 %37, 0
  br i1 %38, label %39, label %44

39:                                               ; preds = %34
  %40 = load i32, ptr %12, align 4
  %41 = call ptr @gcry_strerror(i32 noundef %40)
  %42 = call noalias ptr (ptr, ptr, ...) @wmem_strdup_printf(ptr noundef null, ptr noundef @.str.2, ptr noundef %41)
  %43 = load ptr, ptr %11, align 8
  store ptr %42, ptr %43, align 8
  store i64 0, ptr %13, align 8
  br label %133

44:                                               ; preds = %34
  %45 = load ptr, ptr %15, align 8
  %46 = load ptr, ptr %9, align 8
  %47 = call i32 @gcry_pk_decrypt(ptr noundef %16, ptr noundef %45, ptr noundef %46)
  store i32 %47, ptr %12, align 4
  %48 = load i32, ptr %12, align 4
  %49 = icmp ne i32 %48, 0
  br i1 %49, label %50, label %55

50:                                               ; preds = %44
  %51 = load i32, ptr %12, align 4
  %52 = call ptr @gcry_strerror(i32 noundef %51)
  %53 = call noalias ptr (ptr, ptr, ...) @wmem_strdup_printf(ptr noundef null, ptr noundef @.str.3, ptr noundef %52)
  %54 = load ptr, ptr %11, align 8
  store ptr %53, ptr %54, align 8
  store i64 0, ptr %13, align 8
  br label %133

55:                                               ; preds = %44
  %56 = load ptr, ptr %16, align 8
  %57 = call ptr @gcry_sexp_nth_mpi(ptr noundef %56, i32 noundef 0, i32 noundef 0)
  store ptr %57, ptr %18, align 8
  %58 = load ptr, ptr %18, align 8
  %59 = icmp ne ptr %58, null
  br i1 %59, label %63, label %60

60:                                               ; preds = %55
  %61 = call noalias ptr @g_strdup(ptr noundef @.str.4)
  %62 = load ptr, ptr %11, align 8
  store ptr %61, ptr %62, align 8
  store i64 0, ptr %13, align 8
  br label %133

63:                                               ; preds = %55
  %64 = load ptr, ptr %18, align 8
  %65 = call i32 @gcry_mpi_print(i32 noundef 5, ptr noundef null, i64 noundef 0, ptr noundef %13, ptr noundef %64)
  store i32 %65, ptr %12, align 4
  %66 = load i32, ptr %12, align 4
  %67 = icmp ne i32 %66, 0
  br i1 %67, label %68, label %73

68:                                               ; preds = %63
  %69 = load i32, ptr %12, align 4
  %70 = call ptr @gcry_strerror(i32 noundef %69)
  %71 = call noalias ptr (ptr, ptr, ...) @wmem_strdup_printf(ptr noundef null, ptr noundef @.str.5, ptr noundef %70)
  %72 = load ptr, ptr %11, align 8
  store ptr %71, ptr %72, align 8
  store i64 0, ptr %13, align 8
  br label %133

73:                                               ; preds = %63
  %74 = load i64, ptr %13, align 8
  %75 = load i32, ptr %7, align 4
  %76 = zext i32 %75 to i64
  %77 = icmp ugt i64 %74, %76
  br i1 %77, label %78, label %83

78:                                               ; preds = %73
  %79 = load i64, ptr %13, align 8
  %80 = load i32, ptr %7, align 4
  %81 = call noalias ptr (ptr, ptr, ...) @wmem_strdup_printf(ptr noundef null, ptr noundef @.str.6, i64 noundef %79, i32 noundef %80)
  %82 = load ptr, ptr %11, align 8
  store ptr %81, ptr %82, align 8
  store i64 0, ptr %13, align 8
  br label %133

83:                                               ; preds = %73
  %84 = load ptr, ptr %8, align 8
  %85 = load i32, ptr %7, align 4
  %86 = zext i32 %85 to i64
  %87 = load ptr, ptr %18, align 8
  %88 = call i32 @gcry_mpi_print(i32 noundef 5, ptr noundef %84, i64 noundef %86, ptr noundef %13, ptr noundef %87)
  store i32 %88, ptr %12, align 4
  %89 = load i32, ptr %12, align 4
  %90 = icmp ne i32 %89, 0
  br i1 %90, label %91, label %97

91:                                               ; preds = %83
  %92 = load i64, ptr %13, align 8
  %93 = load i32, ptr %12, align 4
  %94 = call ptr @gcry_strerror(i32 noundef %93)
  %95 = call noalias ptr (ptr, ptr, ...) @wmem_strdup_printf(ptr noundef null, ptr noundef @.str.7, i64 noundef %92, ptr noundef %94)
  %96 = load ptr, ptr %11, align 8
  store ptr %95, ptr %96, align 8
  store i64 0, ptr %13, align 8
  br label %133

97:                                               ; preds = %83
  %98 = load i8, ptr %10, align 1, !range !6, !noundef !7
  %99 = trunc i8 %98 to i1
  br i1 %99, label %100, label %132

100:                                              ; preds = %97
  store i32 0, ptr %12, align 4
  store i64 1, ptr %14, align 8
  br label %101

101:                                              ; preds = %117, %100
  %102 = load i64, ptr %14, align 8
  %103 = load i64, ptr %13, align 8
  %104 = icmp ult i64 %102, %103
  br i1 %104, label %105, label %120

105:                                              ; preds = %101
  %106 = load ptr, ptr %8, align 8
  %107 = load i64, ptr %14, align 8
  %108 = getelementptr i8, ptr %106, i64 %107
  %109 = load i8, ptr %108, align 1
  %110 = zext i8 %109 to i32
  %111 = icmp eq i32 %110, 0
  br i1 %111, label %112, label %116

112:                                              ; preds = %105
  %113 = load i64, ptr %14, align 8
  %114 = trunc i64 %113 to i32
  %115 = add i32 %114, 1
  store i32 %115, ptr %12, align 4
  br label %120

116:                                              ; preds = %105
  br label %117

117:                                              ; preds = %116
  %118 = load i64, ptr %14, align 8
  %119 = add i64 %118, 1
  store i64 %119, ptr %14, align 8
  br label %101, !llvm.loop !8

120:                                              ; preds = %112, %101
  %121 = load i32, ptr %12, align 4
  %122 = sext i32 %121 to i64
  %123 = load i64, ptr %13, align 8
  %124 = sub i64 %123, %122
  store i64 %124, ptr %13, align 8
  %125 = load ptr, ptr %8, align 8
  %126 = load ptr, ptr %8, align 8
  %127 = load i32, ptr %12, align 4
  %128 = sext i32 %127 to i64
  %129 = getelementptr i8, ptr %126, i64 %128
  %130 = load i64, ptr %13, align 8
  %131 = call ptr @memmove.inline(ptr noundef %125, ptr noundef %129, i64 noundef %130) #9
  br label %132

132:                                              ; preds = %120, %97
  br label %133

133:                                              ; preds = %132, %91, %78, %68, %60, %50, %39
  %134 = load ptr, ptr %15, align 8
  call void @gcry_sexp_release(ptr noundef %134)
  %135 = load ptr, ptr %16, align 8
  call void @gcry_sexp_release(ptr noundef %135)
  %136 = load ptr, ptr %17, align 8
  call void @gcry_mpi_release(ptr noundef %136)
  %137 = load ptr, ptr %18, align 8
  call void @gcry_mpi_release(ptr noundef %137)
  %138 = load i64, ptr %13, align 8
  store i64 %138, ptr %6, align 8
  store i32 1, ptr %19, align 4
  br label %139

139:                                              ; preds = %133, %28
  call void @llvm.lifetime.end.p0(i64 8, ptr %18) #9
  call void @llvm.lifetime.end.p0(i64 8, ptr %17) #9
  call void @llvm.lifetime.end.p0(i64 8, ptr %16) #9
  call void @llvm.lifetime.end.p0(i64 8, ptr %15) #9
  call void @llvm.lifetime.end.p0(i64 8, ptr %14) #9
  call void @llvm.lifetime.end.p0(i64 8, ptr %13) #9
  call void @llvm.lifetime.end.p0(i64 4, ptr %12) #9
  %140 = load i64, ptr %6, align 8
  ret i64 %140
}