; Function Attrs: null_pointer_is_valid sspstrong uwtable
define i64 @rsa_decrypt_inplace(i32 noundef %0, ptr noundef %1, ptr noundef %2, i1 noundef zeroext %3, ptr noundef writeonly captures(none) initializes((0, 8)) %4) local_unnamed_addr #0 {
  %6 = alloca i64, align 8
  %7 = alloca ptr, align 8
  %8 = alloca ptr, align 8
  %9 = alloca ptr, align 8
  call void @llvm.lifetime.start.p0(i64 8, ptr nonnull %6) #10
  store i64 0, ptr %6, align 8
  call void @llvm.lifetime.start.p0(i64 8, ptr nonnull %7) #10
  store ptr null, ptr %7, align 8
  call void @llvm.lifetime.start.p0(i64 8, ptr nonnull %8) #10
  store ptr null, ptr %8, align 8
  call void @llvm.lifetime.start.p0(i64 8, ptr nonnull %9) #10
  store ptr null, ptr %9, align 8
  store ptr null, ptr %4, align 8
  %10 = zext i32 %0 to i64
  %11 = call i32 @gcry_mpi_scan(ptr noundef nonnull %9, i32 noundef 5, ptr noundef %1, i64 noundef %10, ptr noundef null)
  %.not = icmp eq i32 %11, 0
  br i1 %.not, label %15, label %12

12:                                               ; preds = %5
  %13 = call ptr @gcry_strerror(i32 noundef %11)
  %14 = call noalias ptr (ptr, ptr, ...) @wmem_strdup_printf(ptr noundef null, ptr noundef nonnull @.str, i32 noundef %0, ptr noundef %13)
  store ptr %14, ptr %4, align 8
  br label %66

15:                                               ; preds = %5
  %16 = load ptr, ptr %9, align 8
  %17 = call i32 (ptr, ptr, ptr, ...) @gcry_sexp_build(ptr noundef nonnull %7, ptr noundef null, ptr noundef nonnull @.str.1, ptr noundef %16)
  %.not51 = icmp eq i32 %17, 0
  br i1 %.not51, label %21, label %18

18:                                               ; preds = %15
  %19 = call ptr @gcry_strerror(i32 noundef %17)
  %20 = call noalias ptr (ptr, ptr, ...) @wmem_strdup_printf(ptr noundef null, ptr noundef nonnull @.str.2, ptr noundef %19)
  store ptr %20, ptr %4, align 8
  store i64 0, ptr %6, align 8
  br label %61

21:                                               ; preds = %15
  %22 = load ptr, ptr %7, align 8
  %23 = call i32 @gcry_pk_decrypt(ptr noundef nonnull %8, ptr noundef %22, ptr noundef %2)
  %.not52 = icmp eq i32 %23, 0
  br i1 %.not52, label %27, label %24

24:                                               ; preds = %21
  %25 = call ptr @gcry_strerror(i32 noundef %23)
  %26 = call noalias ptr (ptr, ptr, ...) @wmem_strdup_printf(ptr noundef null, ptr noundef nonnull @.str.3, ptr noundef %25)
  store ptr %26, ptr %4, align 8
  store i64 0, ptr %6, align 8
  br label %61

27:                                               ; preds = %21
  %28 = load ptr, ptr %8, align 8
  %29 = call ptr @gcry_sexp_nth_mpi(ptr noundef %28, i32 noundef 0, i32 noundef 0)
  %.not53 = icmp eq ptr %29, null
  br i1 %.not53, label %30, label %32

30:                                               ; preds = %27
  %31 = call noalias ptr @g_strdup(ptr noundef nonnull @.str.4)
  store ptr %31, ptr %4, align 8
  store i64 0, ptr %6, align 8
  br label %61

32:                                               ; preds = %27
  %33 = call i32 @gcry_mpi_print(i32 noundef 5, ptr noundef null, i64 noundef 0, ptr noundef nonnull %6, ptr noundef nonnull %29)
  %.not54 = icmp eq i32 %33, 0
  br i1 %.not54, label %37, label %34

34:                                               ; preds = %32
  %35 = call ptr @gcry_strerror(i32 noundef %33)
  %36 = call noalias ptr (ptr, ptr, ...) @wmem_strdup_printf(ptr noundef null, ptr noundef nonnull @.str.5, ptr noundef %35)
  store ptr %36, ptr %4, align 8
  store i64 0, ptr %6, align 8
  br label %61

37:                                               ; preds = %32
  %38 = load i64, ptr %6, align 8
  %39 = icmp ugt i64 %38, %10
  br i1 %39, label %40, label %42

40:                                               ; preds = %37
  %41 = call noalias ptr (ptr, ptr, ...) @wmem_strdup_printf(ptr noundef null, ptr noundef nonnull @.str.6, i64 noundef %38, i32 noundef %0)
  store ptr %41, ptr %4, align 8
  store i64 0, ptr %6, align 8
  br label %61

42:                                               ; preds = %37
  %43 = call i32 @gcry_mpi_print(i32 noundef 5, ptr noundef %1, i64 noundef %10, ptr noundef nonnull %6, ptr noundef nonnull %29)
  %.not55 = icmp eq i32 %43, 0
  br i1 %.not55, label %48, label %44

44:                                               ; preds = %42
  %45 = load i64, ptr %6, align 8
  %46 = call ptr @gcry_strerror(i32 noundef %43)
  %47 = call noalias ptr (ptr, ptr, ...) @wmem_strdup_printf(ptr noundef null, ptr noundef nonnull @.str.7, i64 noundef %45, ptr noundef %46)
  store ptr %47, ptr %4, align 8
  store i64 0, ptr %6, align 8
  br label %61

48:                                               ; preds = %42
  br i1 %3, label %.preheader, label %61

.preheader:                                       ; preds = %48
  %49 = load i64, ptr %6, align 8
  %50 = icmp ugt i64 %49, 1
  br i1 %50, label %.lr.ph, label %.loopexit

.lr.ph:                                           ; preds = %.preheader, %57
  %.04058 = phi i64 [ %58, %57 ], [ 1, %.preheader ]
  %51 = getelementptr i8, ptr %1, i64 %.04058
  %52 = load i8, ptr %51, align 1
  %53 = icmp eq i8 %52, 0
  br i1 %53, label %54, label %57

54:                                               ; preds = %.lr.ph
  %55 = shl i64 %.04058, 32
  %sext = add i64 %55, 4294967296
  %56 = ashr exact i64 %sext, 32
  br label %.loopexit

57:                                               ; preds = %.lr.ph
  %58 = add nuw i64 %.04058, 1
  %exitcond.not = icmp eq i64 %58, %49
  br i1 %exitcond.not, label %.loopexit, label %.lr.ph, !llvm.loop !6

.loopexit:                                        ; preds = %57, %.preheader, %54
  %.041 = phi i64 [ %56, %54 ], [ 0, %.preheader ], [ 0, %57 ]
  %59 = sub i64 %49, %.041
  store i64 %59, ptr %6, align 8
  %60 = getelementptr i8, ptr %1, i64 %.041
  call void @llvm.memmove.p0.p0.i64(ptr noundef align 1 %1, ptr noundef align 1 %60, i64 noundef %59, i1 noundef false) #10
  br label %61

61:                                               ; preds = %48, %.loopexit, %44, %40, %34, %30, %24, %18
  %.0 = phi ptr [ null, %18 ], [ null, %24 ], [ %29, %34 ], [ %29, %40 ], [ %29, %44 ], [ %29, %.loopexit ], [ %29, %48 ], [ null, %30 ]
  %62 = load ptr, ptr %7, align 8
  call void @gcry_sexp_release(ptr noundef %62)
  %63 = load ptr, ptr %8, align 8
  call void @gcry_sexp_release(ptr noundef %63)
  %64 = load ptr, ptr %9, align 8
  call void @gcry_mpi_release(ptr noundef %64)
  call void @gcry_mpi_release(ptr noundef %.0)
  %65 = load i64, ptr %6, align 8
  br label %66

66:                                               ; preds = %61, %12
  %.042 = phi i64 [ 0, %12 ], [ %65, %61 ]
  call void @llvm.lifetime.end.p0(i64 8, ptr nonnull %9) #10
  call void @llvm.lifetime.end.p0(i64 8, ptr nonnull %8) #10
  call void @llvm.lifetime.end.p0(i64 8, ptr nonnull %7) #10
  call void @llvm.lifetime.end.p0(i64 8, ptr nonnull %6) #10
  ret i64 %.042
}